target datalayout = "e-m:e-p270:32:32-p271:32:32-p272:64:64-i64:64-i128:128-f80:128-n8:16:32:64-S128"
target triple = "x86_64-pc-linux-gnu"

%struct.AVIOContext = type { ptr, ptr, i32, ptr, ptr, ptr, ptr, ptr, ptr, i64, i32, i32, i32, i32, i32, i64, ptr, ptr, ptr, ptr, i32, i32, ptr, ptr, ptr, i32, ptr, i64, i64 }

; Function Attrs: nounwind uwtable
define i32 @avio_feof(ptr noundef %0) #0 {
  %2 = alloca i32, align 4
  %3 = alloca ptr, align 8
  store ptr %0, ptr %3, align 8, !tbaa !14
  %4 = load ptr, ptr %3, align 8, !tbaa !14
  %5 = icmp ne ptr %4, null
  br i1 %5, label %7, label %6

6:                                                ; preds = %1
  store i32 0, ptr %2, align 4
  br label %20

7:                                                ; preds = %1
  %8 = load ptr, ptr %3, align 8, !tbaa !14
  %9 = getelementptr inbounds nuw %struct.AVIOContext, ptr %8, i32 0, i32 10
  %10 = load i32, ptr %9, align 8, !tbaa !31
  %11 = icmp ne i32 %10, 0
  br i1 %11, label %12, label %16

12:                                               ; preds = %7
  %13 = load ptr, ptr %3, align 8, !tbaa !14
  %14 = getelementptr inbounds nuw %struct.AVIOContext, ptr %13, i32 0, i32 10
  store i32 0, ptr %14, align 8, !tbaa !31
  %15 = load ptr, ptr %3, align 8, !tbaa !14
  call void @fill_buffer(ptr noundef %15)
  br label %16

16:                                               ; preds = %12, %7
  %17 = load ptr, ptr %3, align 8, !tbaa !14
  %18 = getelementptr inbounds nuw %struct.AVIOContext, ptr %17, i32 0, i32 10
  %19 = load i32, ptr %18, align 8, !tbaa !31
  store i32 %19, ptr %2, align 4
  br label %20

20:                                               ; preds = %16, %6
  %21 = load i32, ptr %2, align 4
  ret i32 %21
}

; Function Attrs: nounwind uwtable
define internal i32 @read_packet_wrapper(ptr noundef %0, ptr noundef %1, i32 noundef %2) #0 {
  %4 = alloca i32, align 4
  %5 = alloca ptr, align 8
  %6 = alloca ptr, align 8
  %7 = alloca i32, align 4
  %8 = alloca i32, align 4
  %9 = alloca i32, align 4
  store ptr %0, ptr %5, align 8, !tbaa !14
  store ptr %1, ptr %6, align 8, !tbaa !9
  store i32 %2, ptr %7, align 4, !tbaa !11
  call void @llvm.lifetime.start.p0(i64 4, ptr %8) #12
  %10 = load ptr, ptr %5, align 8, !tbaa !14
  %11 = getelementptr inbounds nuw %struct.AVIOContext, ptr %10, i32 0, i32 6
  %12 = load ptr, ptr %11, align 8, !tbaa !28
  %13 = icmp ne ptr %12, null
  br i1 %13, label %15, label %14

14:                                               ; preds = %3
  store i32 -22, ptr %4, align 4
  store i32 1, ptr %9, align 4
  br label %26

15:                                               ; preds = %3
  %16 = load ptr, ptr %5, align 8, !tbaa !14
  %17 = getelementptr inbounds nuw %struct.AVIOContext, ptr %16, i32 0, i32 6
  %18 = load ptr, ptr %17, align 8, !tbaa !28
  %19 = load ptr, ptr %5, align 8, !tbaa !14
  %20 = getelementptr inbounds nuw %struct.AVIOContext, ptr %19, i32 0, i32 5
  %21 = load ptr, ptr %20, align 8, !tbaa !25
  %22 = load ptr, ptr %6, align 8, !tbaa !9
  %23 = load i32, ptr %7, align 4, !tbaa !11
  %24 = call i32 %18(ptr noundef %21, ptr noundef %22, i32 noundef %23)
  store i32 %24, ptr %8, align 4, !tbaa !11
  %25 = load i32, ptr %8, align 4, !tbaa !11
  store i32 %25, ptr %4, align 4
  store i32 1, ptr %9, align 4
  br label %26

26:                                               ; preds = %15, %14
  call void @llvm.lifetime.end.p0(i64 4, ptr %8) #12
  %27 = load i32, ptr %4, align 4
  ret i32 %27
}

; Function Attrs: nounwind uwtable
define i32 @avio_read_partial(ptr noundef %0, ptr noundef %1, i32 noundef %2) #0 {
  %4 = alloca i32, align 4
  %5 = alloca ptr, align 8
  %6 = alloca ptr, align 8
  %7 = alloca i32, align 4
  %8 = alloca i32, align 4
  %9 = alloca i32, align 4
  store ptr %0, ptr %5, align 8, !tbaa !14
  store ptr %1, ptr %6, align 8, !tbaa !9
  store i32 %2, ptr %7, align 4, !tbaa !11
  call void @llvm.lifetime.start.p0(i64 4, ptr %8) #12
  %10 = load i32, ptr %7, align 4, !tbaa !11
  %11 = icmp slt i32 %10, 0
  br i1 %11, label %12, label %13

12:                                               ; preds = %3
  store i32 -22, ptr %4, align 4
  store i32 1, ptr %9, align 4
  br label %102

13:                                               ; preds = %3
  %14 = load ptr, ptr %5, align 8, !tbaa !14
  %15 = getelementptr inbounds nuw %struct.AVIOContext, ptr %14, i32 0, i32 6
  %16 = load ptr, ptr %15, align 8, !tbaa !28
  %17 = icmp ne ptr %16, null
  br i1 %17, label %18, label %39

18:                                               ; preds = %13
  %19 = load ptr, ptr %5, align 8, !tbaa !14
  %20 = getelementptr inbounds nuw %struct.AVIOContext, ptr %19, i32 0, i32 12
  %21 = load i32, ptr %20, align 8, !tbaa !46
  %22 = icmp ne i32 %21, 0
  br i1 %22, label %23, label %39

23:                                               ; preds = %18
  %24 = load ptr, ptr %5, align 8, !tbaa !14
  %25 = load ptr, ptr %6, align 8, !tbaa !9
  %26 = load i32, ptr %7, align 4, !tbaa !11
  %27 = call i32 @read_packet_wrapper(ptr noundef %24, ptr noundef %25, i32 noundef %26)
  store i32 %27, ptr %8, align 4, !tbaa !11
  %28 = load i32, ptr %8, align 4, !tbaa !11
  %29 = icmp sgt i32 %28, 0
  br i1 %29, label %30, label %37

30:                                               ; preds = %23
  %31 = load i32, ptr %8, align 4, !tbaa !11
  %32 = sext i32 %31 to i64
  %33 = load ptr, ptr %5, align 8, !tbaa !14
  %34 = getelementptr inbounds nuw %struct.AVIOContext, ptr %33, i32 0, i32 9
  %35 = load i64, ptr %34, align 8, !tbaa !30
  %36 = add nsw i64 %35, %32
  store i64 %36, ptr %34, align 8, !tbaa !30
  br label %37

37:                                               ; preds = %30, %23
  %38 = load i32, ptr %8, align 4, !tbaa !11
  store i32 %38, ptr %4, align 4
  store i32 1, ptr %9, align 4
  br label %102

39:                                               ; preds = %18, %13
  %40 = load ptr, ptr %5, align 8, !tbaa !14
  %41 = getelementptr inbounds nuw %struct.AVIOContext, ptr %40, i32 0, i32 4
  %42 = load ptr, ptr %41, align 8, !tbaa !38
  %43 = load ptr, ptr %5, align 8, !tbaa !14
  %44 = getelementptr inbounds nuw %struct.AVIOContext, ptr %43, i32 0, i32 3
  %45 = load ptr, ptr %44, align 8, !tbaa !23
  %46 = ptrtoint ptr %42 to i64
  %47 = ptrtoint ptr %45 to i64
  %48 = sub i64 %46, %47
  %49 = trunc i64 %48 to i32
  store i32 %49, ptr %8, align 4, !tbaa !11
  %50 = load i32, ptr %8, align 4, !tbaa !11
  %51 = icmp eq i32 %50, 0
  br i1 %51, label %52, label %64

52:                                               ; preds = %39
  %53 = load ptr, ptr %5, align 8, !tbaa !14
  call void @fill_buffer(ptr noundef %53)
  %54 = load ptr, ptr %5, align 8, !tbaa !14
  %55 = getelementptr inbounds nuw %struct.AVIOContext, ptr %54, i32 0, i32 4
  %56 = load ptr, ptr %55, align 8, !tbaa !38
  %57 = load ptr, ptr %5, align 8, !tbaa !14
  %58 = getelementptr inbounds nuw %struct.AVIOContext, ptr %57, i32 0, i32 3
  %59 = load ptr, ptr %58, align 8, !tbaa !23
  %60 = ptrtoint ptr %56 to i64
  %61 = ptrtoint ptr %59 to i64
  %62 = sub i64 %60, %61
  %63 = trunc i64 %62 to i32
  store i32 %63, ptr %8, align 4, !tbaa !11
  br label %64

64:                                               ; preds = %52, %39
  %65 = load i32, ptr %8, align 4, !tbaa !11
  %66 = load i32, ptr %7, align 4, !tbaa !11
  %67 = icmp sgt i32 %65, %66
  br i1 %67, label %68, label %70

68:                                               ; preds = %64
  %69 = load i32, ptr %7, align 4, !tbaa !11
  store i32 %69, ptr %8, align 4, !tbaa !11
  br label %70

70:                                               ; preds = %68, %64
  %71 = load ptr, ptr %6, align 8, !tbaa !9
  %72 = load ptr, ptr %5, align 8, !tbaa !14
  %73 = getelementptr inbounds nuw %struct.AVIOContext, ptr %72, i32 0, i32 3
  %74 = load ptr, ptr %73, align 8, !tbaa !23
  %75 = load i32, ptr %8, align 4, !tbaa !11
  %76 = sext i32 %75 to i64
  call void @llvm.memcpy.p0.p0.i64(ptr align 1 %71, ptr align 1 %74, i64 %76, i1 false)
  %77 = load i32, ptr %8, align 4, !tbaa !11
  %78 = load ptr, ptr %5, align 8, !tbaa !14
  %79 = getelementptr inbounds nuw %struct.AVIOContext, ptr %78, i32 0, i32 3
  %80 = load ptr, ptr %79, align 8, !tbaa !23
  %81 = sext i32 %77 to i64
  %82 = getelementptr inbounds i8, ptr %80, i64 %81
  store ptr %82, ptr %79, align 8, !tbaa !23
  %83 = load i32, ptr %8, align 4, !tbaa !11
  %84 = icmp ne i32 %83, 0
  br i1 %84, label %100, label %85

85:                                               ; preds = %70
  %86 = load ptr, ptr %5, align 8, !tbaa !14
  %87 = getelementptr inbounds nuw %struct.AVIOContext, ptr %86, i32 0, i32 11
  %88 = load i32, ptr %87, align 4, !tbaa !32
  %89 = icmp ne i32 %88, 0
  br i1 %89, label %90, label %94

90:                                               ; preds = %85
  %91 = load ptr, ptr %5, align 8, !tbaa !14
  %92 = getelementptr inbounds nuw %struct.AVIOContext, ptr %91, i32 0, i32 11
  %93 = load i32, ptr %92, align 4, !tbaa !32
  store i32 %93, ptr %4, align 4
  store i32 1, ptr %9, align 4
  br label %102

94:                                               ; preds = %85
  %95 = load ptr, ptr %5, align 8, !tbaa !14
  %96 = call i32 @avio_feof(ptr noundef %95)
  %97 = icmp ne i32 %96, 0
  br i1 %97, label %98, label %99

98:                                               ; preds = %94
  store i32 -541478725, ptr %4, align 4
  store i32 1, ptr %9, align 4
  br label %102

99:                                               ; preds = %94
  br label %100

100:                                              ; preds = %99, %70
  %101 = load i32, ptr %8, align 4, !tbaa !11
  store i32 %101, ptr %4, align 4
  store i32 1, ptr %9, align 4
  br label %102

102:                                              ; preds = %100, %98, %90, %37, %12
  call void @llvm.lifetime.end.p0(i64 4, ptr %8) #12
  %103 = load i32, ptr %4, align 4
  ret i32 %103
}