; Function Attrs: nounwind uwtable
define i32 @avio_read_partial(ptr noundef %0, ptr noundef %1, i32 noundef %2) local_unnamed_addr #3 {
  %4 = icmp slt i32 %2, 0
  br i1 %4, label %48, label %5

5:                                                ; preds = %3
  %6 = getelementptr inbounds nuw i8, ptr %0, i64 48
  %7 = load ptr, ptr %6, align 8, !tbaa !22
  %.not = icmp eq ptr %7, null
  br i1 %.not, label %20, label %8

8:                                                ; preds = %5
  %9 = getelementptr inbounds nuw i8, ptr %0, i64 88
  %10 = load i32, ptr %9, align 8, !tbaa !20
  %.not34 = icmp eq i32 %10, 0
  br i1 %.not34, label %20, label %read_packet_wrapper.exit

read_packet_wrapper.exit:                         ; preds = %8
  %11 = getelementptr inbounds nuw i8, ptr %0, i64 40
  %12 = load ptr, ptr %11, align 8, !tbaa !18
  %13 = tail call i32 %7(ptr noundef %12, ptr noundef %1, i32 noundef %2) #14
  %14 = icmp sgt i32 %13, 0
  br i1 %14, label %15, label %48

15:                                               ; preds = %read_packet_wrapper.exit
  %16 = zext nneg i32 %13 to i64
  %17 = getelementptr inbounds nuw i8, ptr %0, i64 72
  %18 = load i64, ptr %17, align 8, !tbaa !27
  %19 = add nsw i64 %18, %16
  store i64 %19, ptr %17, align 8, !tbaa !27
  br label %48

20:                                               ; preds = %8, %5
  %21 = getelementptr inbounds nuw i8, ptr %0, i64 32
  %22 = load ptr, ptr %21, align 8, !tbaa !19
  %23 = getelementptr inbounds nuw i8, ptr %0, i64 24
  %24 = load ptr, ptr %23, align 8, !tbaa !16
  %25 = ptrtoint ptr %22 to i64
  %26 = ptrtoint ptr %24 to i64
  %27 = sub i64 %25, %26
  %28 = trunc i64 %27 to i32
  %29 = icmp eq i32 %28, 0
  br i1 %29, label %30, label %37

30:                                               ; preds = %20
  tail call fastcc void @fill_buffer(ptr noundef nonnull %0)
  %31 = load ptr, ptr %21, align 8, !tbaa !19
  %32 = load ptr, ptr %23, align 8, !tbaa !16
  %33 = ptrtoint ptr %31 to i64
  %34 = ptrtoint ptr %32 to i64
  %35 = sub i64 %33, %34
  %36 = trunc i64 %35 to i32
  br label %37

37:                                               ; preds = %30, %20
  %38 = phi ptr [ %32, %30 ], [ %24, %20 ]
  %.0 = phi i32 [ %36, %30 ], [ %28, %20 ]
  %spec.select = tail call i32 @llvm.smin.i32(i32 %.0, i32 %2)
  %39 = sext i32 %spec.select to i64
  tail call void @llvm.memcpy.p0.p0.i64(ptr align 1 %1, ptr align 1 %38, i64 %39, i1 false)
  %40 = load ptr, ptr %23, align 8, !tbaa !16
  %41 = getelementptr inbounds i8, ptr %40, i64 %39
  store ptr %41, ptr %23, align 8, !tbaa !16
  %.not35 = icmp eq i32 %spec.select, 0
  br i1 %.not35, label %42, label %avio_feof.exit.thread

42:                                               ; preds = %37
  %43 = getelementptr inbounds nuw i8, ptr %0, i64 84
  %44 = load i32, ptr %43, align 4, !tbaa !34
  %.not36 = icmp eq i32 %44, 0
  br i1 %.not36, label %45, label %48

45:                                               ; preds = %42
  %46 = getelementptr inbounds nuw i8, ptr %0, i64 80
  %47 = load i32, ptr %46, align 8, !tbaa !46
  %.not6.i = icmp eq i32 %47, 0
  br i1 %.not6.i, label %avio_feof.exit.thread, label %avio_feof.exit

avio_feof.exit:                                   ; preds = %45
  store i32 0, ptr %46, align 8, !tbaa !46
  tail call fastcc void @fill_buffer(ptr noundef nonnull %0)
  %.pre.i = load i32, ptr %46, align 8, !tbaa !46
  %.not37 = icmp eq i32 %.pre.i, 0
  br i1 %.not37, label %avio_feof.exit.thread, label %48

avio_feof.exit.thread:                            ; preds = %45, %avio_feof.exit, %37
  br label %48

48:                                               ; preds = %avio_feof.exit, %42, %read_packet_wrapper.exit, %15, %3, %avio_feof.exit.thread
  %.029 = phi i32 [ %spec.select, %avio_feof.exit.thread ], [ -22, %3 ], [ %13, %15 ], [ %13, %read_packet_wrapper.exit ], [ %44, %42 ], [ -541478725, %avio_feof.exit ]
  ret i32 %.029
}